; Function Attrs: nounwind uwtable
define noalias noundef ptr @Abc_NtkDfsSeq(ptr noundef captures(none) %0) local_unnamed_addr #0 {
  %2 = getelementptr inbounds nuw i8, ptr %0, i64 232
  %3 = load ptr, ptr %2, align 8, !tbaa !43
  %.not.i = icmp eq ptr %3, null
  br i1 %.not.i, label %4, label %Abc_NtkIncrementTravId.exit

4:                                                ; preds = %1
  %5 = getelementptr inbounds nuw i8, ptr %0, i64 224
  %6 = getelementptr i8, ptr %0, i64 32
  %.val.i = load ptr, ptr %6, align 8, !tbaa !35
  %7 = getelementptr i8, ptr %.val.i, i64 4
  %.val.val.i = load i32, ptr %7, align 4, !tbaa !41
  %8 = add nsw i32 %.val.val.i, 500
  %9 = load i32, ptr %5, align 8, !tbaa !29
  %.not.i.i.i = icmp slt i32 %9, %8
  br i1 %.not.i.i.i, label %10, label %Vec_IntGrow.exit.i.i

10:                                               ; preds = %4
  %11 = sext i32 %8 to i64
  %12 = shl nsw i64 %11, 2
  %13 = tail call noalias ptr @malloc(i64 noundef %12) #22
  store ptr %13, ptr %2, align 8, !tbaa !30
  store i32 %8, ptr %5, align 8, !tbaa !29
  br label %Vec_IntGrow.exit.i.i

Vec_IntGrow.exit.i.i:                             ; preds = %10, %4
  %14 = phi ptr [ %13, %10 ], [ null, %4 ]
  %15 = icmp sgt i32 %.val.val.i, -500
  br i1 %15, label %.lr.ph.i.i, label %Vec_IntFill.exit.i

.lr.ph.i.i:                                       ; preds = %Vec_IntGrow.exit.i.i
  %16 = zext nneg i32 %8 to i64
  %17 = shl nuw nsw i64 %16, 2
  tail call void @llvm.memset.p0.i64(ptr align 4 %14, i8 0, i64 %17, i1 false), !tbaa !31
  br label %Vec_IntFill.exit.i

Vec_IntFill.exit.i:                               ; preds = %.lr.ph.i.i, %Vec_IntGrow.exit.i.i
  %18 = getelementptr inbounds nuw i8, ptr %0, i64 228
  store i32 %8, ptr %18, align 4, !tbaa !28
  br label %Abc_NtkIncrementTravId.exit

Abc_NtkIncrementTravId.exit:                      ; preds = %1, %Vec_IntFill.exit.i
  %19 = getelementptr inbounds nuw i8, ptr %0, i64 216
  %20 = load i32, ptr %19, align 8, !tbaa !14
  %21 = add nsw i32 %20, 1
  store i32 %21, ptr %19, align 8, !tbaa !14
  %22 = tail call noalias dereferenceable_or_null(16) ptr @malloc(i64 noundef 16) #22
  %23 = getelementptr inbounds nuw i8, ptr %22, i64 4
  store i32 0, ptr %23, align 4, !tbaa !41
  store i32 100, ptr %22, align 8, !tbaa !42
  %24 = tail call noalias dereferenceable_or_null(800) ptr @malloc(i64 noundef 800) #22
  %25 = getelementptr inbounds nuw i8, ptr %22, i64 8
  store ptr %24, ptr %25, align 8, !tbaa !36
  %26 = getelementptr i8, ptr %0, i64 48
  %.val20 = load ptr, ptr %26, align 8, !tbaa !78
  %27 = getelementptr i8, ptr %.val20, i64 4
  %.val.val21 = load i32, ptr %27, align 4, !tbaa !41
  %28 = icmp sgt i32 %.val.val21, 0
  br i1 %28, label %.lr.ph, label %.critedge.preheader

.critedge.preheader:                              ; preds = %.lr.ph, %Abc_NtkIncrementTravId.exit
  %29 = getelementptr i8, ptr %0, i64 40
  %.val1824 = load ptr, ptr %29, align 8, !tbaa !79
  %30 = getelementptr i8, ptr %.val1824, i64 4
  %.val18.val25 = load i32, ptr %30, align 4, !tbaa !41
  %31 = icmp sgt i32 %.val18.val25, 0
  br i1 %31, label %.critedge, label %.critedge2

.lr.ph:                                           ; preds = %Abc_NtkIncrementTravId.exit, %.lr.ph
  %indvars.iv = phi i64 [ %indvars.iv.next, %.lr.ph ], [ 0, %Abc_NtkIncrementTravId.exit ]
  %.val23 = phi ptr [ %.val, %.lr.ph ], [ %.val20, %Abc_NtkIncrementTravId.exit ]
  %32 = getelementptr i8, ptr %.val23, i64 8
  %.val17.val = load ptr, ptr %32, align 8, !tbaa !36
  %33 = getelementptr inbounds nuw ptr, ptr %.val17.val, i64 %indvars.iv
  %34 = load ptr, ptr %33, align 8, !tbaa !38
  tail call void @Abc_NtkDfsSeq_rec(ptr noundef %34, ptr noundef nonnull %22)
  %indvars.iv.next = add nuw nsw i64 %indvars.iv, 1
  %.val = load ptr, ptr %26, align 8, !tbaa !78
  %35 = getelementptr i8, ptr %.val, i64 4
  %.val.val = load i32, ptr %35, align 4, !tbaa !41
  %36 = sext i32 %.val.val to i64
  %37 = icmp slt i64 %indvars.iv.next, %36
  br i1 %37, label %.lr.ph, label %.critedge.preheader, !llvm.loop !80

.critedge:                                        ; preds = %.critedge.preheader, %.critedge
  %indvars.iv31 = phi i64 [ %indvars.iv.next32, %.critedge ], [ 0, %.critedge.preheader ]
  %.val1827 = phi ptr [ %.val18, %.critedge ], [ %.val1824, %.critedge.preheader ]
  %38 = getelementptr i8, ptr %.val1827, i64 8
  %.val19.val = load ptr, ptr %38, align 8, !tbaa !36
  %39 = getelementptr inbounds nuw ptr, ptr %.val19.val, i64 %indvars.iv31
  %40 = load ptr, ptr %39, align 8, !tbaa !38
  tail call void @Abc_NtkDfsSeq_rec(ptr noundef %40, ptr noundef nonnull %22)
  %indvars.iv.next32 = add nuw nsw i64 %indvars.iv31, 1
  %.val18 = load ptr, ptr %29, align 8, !tbaa !79
  %41 = getelementptr i8, ptr %.val18, i64 4
  %.val18.val = load i32, ptr %41, align 4, !tbaa !41
  %42 = sext i32 %.val18.val to i64
  %43 = icmp slt i64 %indvars.iv.next32, %42
  br i1 %43, label %.critedge, label %.critedge2, !llvm.loop !81

.critedge2:                                       ; preds = %.critedge, %.critedge.preheader
  ret ptr %22
}